; Function Attrs: nofree norecurse nounwind memory(argmem: readwrite) uwtable
define hidden noundef zeroext i1 @_mi_bitmap_try_find_from_claim(ptr noundef captures(none) %0, i64 noundef %1, i64 noundef %2, i64 noundef %3, ptr noundef writeonly captures(none) %4) local_unnamed_addr #1 {
  %.not1629.not = icmp eq i64 %1, 0
  br i1 %.not1629.not, label %.critedge, label %.lr.ph

.lr.ph:                                           ; preds = %5
  %6 = icmp eq i64 %3, 0
  %notmask.i.i = shl nsw i64 -1, %3
  %7 = xor i64 %notmask.i.i, -1
  %8 = sub i64 64, %3
  %9 = icmp eq i64 %3, 1
  br i1 %9, label %.lr.ph.split.us, label %.lr.ph.split

.lr.ph.split.us:                                  ; preds = %.lr.ph, %.loopexit.us
  %.01231.us = phi i64 [ %27, %.loopexit.us ], [ 0, %.lr.ph ]
  %.01330.us = phi i64 [ %28, %.loopexit.us ], [ %2, %.lr.ph ]
  %.not.us = icmp ult i64 %.01330.us, %1
  %spec.store.select.us = select i1 %.not.us, i64 %.01330.us, i64 0
  %10 = getelementptr inbounds nuw i64, ptr %0, i64 %spec.store.select.us
  %11 = load atomic i64, ptr %10 monotonic, align 8
  %12 = icmp eq i64 %11, -1
  br i1 %12, label %.loopexit.us, label %mi_bitmap_mask_.exit.i.us

mi_bitmap_mask_.exit.i.us:                        ; preds = %.lr.ph.split.us
  %13 = xor i64 %11, -1
  %14 = tail call range(i64 0, 64) i64 @llvm.cttz.i64(i64 range(i64 1, 0) %13, i1 true)
  %.not.not50.i.us = icmp ugt i64 %14, %8
  br i1 %.not.not50.i.us, label %.loopexit.us, label %.lr.ph.i.us

.lr.ph.i.us:                                      ; preds = %mi_bitmap_mask_.exit.i.us
  %15 = shl nuw i64 1, %14
  br label %.lr.ph.split.us.i.us

.lr.ph.split.us.i.us:                             ; preds = %.lr.ph.i.us, %26
  %.03353.us.i.us = phi i64 [ %.235.us.i.us, %26 ], [ %11, %.lr.ph.i.us ]
  %.03852.us.i.us = phi i64 [ %.139.us.i.us, %26 ], [ %14, %.lr.ph.i.us ]
  %.04051.us.i.us = phi i64 [ %.141.us.i.us, %26 ], [ %15, %.lr.ph.i.us ]
  %16 = and i64 %.04051.us.i.us, %.03353.us.i.us
  %17 = icmp eq i64 %16, 0
  br i1 %17, label %21, label %18

18:                                               ; preds = %.lr.ph.split.us.i.us
  %19 = add i64 %.03852.us.i.us, 1
  %20 = shl i64 %.04051.us.i.us, 1
  br label %26

21:                                               ; preds = %.lr.ph.split.us.i.us
  %22 = or i64 %.04051.us.i.us, %.03353.us.i.us
  %23 = cmpxchg ptr %10, i64 %.03353.us.i.us, i64 %22 acq_rel acquire, align 8
  %24 = extractvalue { i64, i1 } %23, 1
  %25 = extractvalue { i64, i1 } %23, 0
  br i1 %24, label %_mi_bitmap_try_find_claim_field.exit, label %26, !llvm.loop !3

26:                                               ; preds = %21, %18
  %.141.us.i.us = phi i64 [ %20, %18 ], [ %.04051.us.i.us, %21 ]
  %.139.us.i.us = phi i64 [ %19, %18 ], [ %.03852.us.i.us, %21 ]
  %.235.us.i.us = phi i64 [ %.03353.us.i.us, %18 ], [ %25, %21 ]
  %.not.not.us.i.us = icmp ugt i64 %.139.us.i.us, %8
  br i1 %.not.not.us.i.us, label %.loopexit.us, label %.lr.ph.split.us.i.us

.loopexit.us:                                     ; preds = %26, %mi_bitmap_mask_.exit.i.us, %.lr.ph.split.us
  %27 = add nuw i64 %.01231.us, 1
  %28 = add i64 %spec.store.select.us, 1
  %exitcond96.not = icmp eq i64 %27, %1
  br i1 %exitcond96.not, label %.critedge, label %.lr.ph.split.us, !llvm.loop !9

.lr.ph.split:                                     ; preds = %.lr.ph
  %29 = icmp ugt i64 %3, 63
  br i1 %29, label %.lr.ph.split.split.us, label %.lr.ph.split.split

.lr.ph.split.split.us:                            ; preds = %.lr.ph.split, %.loopexit20.us
  %.01231.us37 = phi i64 [ %50, %.loopexit20.us ], [ 0, %.lr.ph.split ]
  %.01330.us38 = phi i64 [ %51, %.loopexit20.us ], [ %2, %.lr.ph.split ]
  %.not.us39 = icmp ult i64 %.01330.us38, %1
  %spec.store.select.us40 = select i1 %.not.us39, i64 %.01330.us38, i64 0
  %30 = getelementptr inbounds nuw i64, ptr %0, i64 %spec.store.select.us40
  %31 = load atomic i64, ptr %30 monotonic, align 8
  %32 = icmp eq i64 %31, -1
  br i1 %32, label %.loopexit20.us, label %mi_bitmap_mask_.exit.i.us41

mi_bitmap_mask_.exit.i.us41:                      ; preds = %.lr.ph.split.split.us
  %33 = xor i64 %31, -1
  %34 = tail call range(i64 0, 64) i64 @llvm.cttz.i64(i64 range(i64 1, 0) %33, i1 true)
  %.not.not50.i.us43 = icmp ugt i64 %34, %8
  br i1 %.not.not50.i.us43, label %.loopexit20.us, label %.lr.ph.i.us44

.lr.ph.i.us44:                                    ; preds = %mi_bitmap_mask_.exit.i.us41
  %35 = shl nsw i64 -1, %34
  br label %.lr.ph.split.i.us

.lr.ph.split.i.us:                                ; preds = %49, %.lr.ph.i.us44
  %.03353.i.us = phi i64 [ %.235.i.us, %49 ], [ %31, %.lr.ph.i.us44 ]
  %.03852.i.us = phi i64 [ %.139.i.us, %49 ], [ %34, %.lr.ph.i.us44 ]
  %.04051.i.us = phi i64 [ %.141.i.us, %49 ], [ %35, %.lr.ph.i.us44 ]
  %36 = and i64 %.04051.i.us, %.03353.i.us
  %37 = icmp eq i64 %36, 0
  br i1 %37, label %44, label %38

38:                                               ; preds = %.lr.ph.split.i.us
  %39 = tail call range(i64 0, 65) i64 @llvm.ctlz.i64(i64 %36, i1 true)
  %40 = add i64 %.03852.i.us, %39
  %41 = sub i64 64, %40
  %42 = add i64 %41, %.03852.i.us
  %43 = shl i64 %.04051.i.us, %41
  br label %49

44:                                               ; preds = %.lr.ph.split.i.us
  %45 = or i64 %.04051.i.us, %.03353.i.us
  %46 = cmpxchg ptr %30, i64 %.03353.i.us, i64 %45 acq_rel acquire, align 8
  %47 = extractvalue { i64, i1 } %46, 1
  %48 = extractvalue { i64, i1 } %46, 0
  br i1 %47, label %_mi_bitmap_try_find_claim_field.exit, label %49, !llvm.loop !3

49:                                               ; preds = %44, %38
  %.141.i.us = phi i64 [ %43, %38 ], [ %.04051.i.us, %44 ]
  %.139.i.us = phi i64 [ %42, %38 ], [ %.03852.i.us, %44 ]
  %.235.i.us = phi i64 [ %.03353.i.us, %38 ], [ %48, %44 ]
  %.not.not.i.us = icmp ugt i64 %.139.i.us, %8
  br i1 %.not.not.i.us, label %.loopexit20.us, label %.lr.ph.split.i.us

.loopexit20.us:                                   ; preds = %49, %mi_bitmap_mask_.exit.i.us41, %.lr.ph.split.split.us
  %50 = add nuw i64 %.01231.us37, 1
  %51 = add i64 %spec.store.select.us40, 1
  %exitcond95.not = icmp eq i64 %50, %1
  br i1 %exitcond95.not, label %.critedge, label %.lr.ph.split.split.us, !llvm.loop !9

.lr.ph.split.split:                               ; preds = %.lr.ph.split
  br i1 %6, label %.lr.ph.split.split.split.us, label %.lr.ph.split.split.split

.lr.ph.split.split.split.us:                      ; preds = %.lr.ph.split.split, %.loopexit20.us71
  %.01231.us51 = phi i64 [ %64, %.loopexit20.us71 ], [ 0, %.lr.ph.split.split ]
  %.01330.us52 = phi i64 [ %65, %.loopexit20.us71 ], [ %2, %.lr.ph.split.split ]
  %.not.us53 = icmp ult i64 %.01330.us52, %1
  %spec.store.select.us54 = select i1 %.not.us53, i64 %.01330.us52, i64 0
  %52 = getelementptr inbounds nuw i64, ptr %0, i64 %spec.store.select.us54
  %53 = load atomic i64, ptr %52 monotonic, align 8
  %54 = icmp eq i64 %53, -1
  br i1 %54, label %.loopexit20.us71, label %mi_bitmap_mask_.exit.i.us55

mi_bitmap_mask_.exit.i.us55:                      ; preds = %.lr.ph.split.split.split.us
  %55 = xor i64 %53, -1
  %56 = tail call range(i64 0, 64) i64 @llvm.cttz.i64(i64 range(i64 1, 0) %55, i1 true)
  %.not.not50.i.us57 = icmp ugt i64 %56, %8
  br i1 %.not.not50.i.us57, label %.loopexit20.us71, label %.lr.ph.split.i.us59.preheader

.lr.ph.split.i.us59.preheader:                    ; preds = %mi_bitmap_mask_.exit.i.us55
  %57 = getelementptr inbounds nuw i64, ptr %0, i64 %spec.store.select.us54
  %58 = cmpxchg ptr %57, i64 %53, i64 %53 acq_rel acquire, align 8
  %59 = extractvalue { i64, i1 } %58, 1
  br i1 %59, label %_mi_bitmap_try_find_claim_field.exit, label %.lr.ph127, !llvm.loop !3

.lr.ph127:                                        ; preds = %.lr.ph.split.i.us59.preheader, %.lr.ph127
  %60 = phi { i64, i1 } [ %62, %.lr.ph127 ], [ %58, %.lr.ph.split.i.us59.preheader ]
  %61 = extractvalue { i64, i1 } %60, 0
  %62 = cmpxchg ptr %57, i64 %61, i64 %61 acq_rel acquire, align 8
  %63 = extractvalue { i64, i1 } %62, 1
  br i1 %63, label %_mi_bitmap_try_find_claim_field.exit, label %.lr.ph127, !llvm.loop !3

.loopexit20.us71:                                 ; preds = %mi_bitmap_mask_.exit.i.us55, %.lr.ph.split.split.split.us
  %64 = add nuw i64 %.01231.us51, 1
  %65 = add i64 %spec.store.select.us54, 1
  %exitcond94.not = icmp eq i64 %64, %1
  br i1 %exitcond94.not, label %.critedge, label %.lr.ph.split.split.split.us, !llvm.loop !9

.lr.ph.split.split.split:                         ; preds = %.lr.ph.split.split, %.loopexit20
  %.01231 = phi i64 [ %88, %.loopexit20 ], [ 0, %.lr.ph.split.split ]
  %.01330 = phi i64 [ %89, %.loopexit20 ], [ %2, %.lr.ph.split.split ]
  %.not = icmp ult i64 %.01330, %1
  %spec.store.select = select i1 %.not, i64 %.01330, i64 0
  %66 = getelementptr inbounds nuw i64, ptr %0, i64 %spec.store.select
  %67 = load atomic i64, ptr %66 monotonic, align 8
  %68 = icmp eq i64 %67, -1
  br i1 %68, label %.loopexit20, label %mi_bitmap_mask_.exit.i

mi_bitmap_mask_.exit.i:                           ; preds = %.lr.ph.split.split.split
  %69 = xor i64 %67, -1
  %70 = tail call range(i64 0, 64) i64 @llvm.cttz.i64(i64 range(i64 1, 0) %69, i1 true)
  %.not.not50.i = icmp ugt i64 %70, %8
  br i1 %.not.not50.i, label %.loopexit20, label %.lr.ph.i

.lr.ph.i:                                         ; preds = %mi_bitmap_mask_.exit.i
  %71 = shl i64 %7, %70
  br label %.lr.ph.split.i

.lr.ph.split.i:                                   ; preds = %.lr.ph.i, %85
  %.03353.i = phi i64 [ %.235.i, %85 ], [ %67, %.lr.ph.i ]
  %.03852.i = phi i64 [ %.139.i, %85 ], [ %70, %.lr.ph.i ]
  %.04051.i = phi i64 [ %.141.i, %85 ], [ %71, %.lr.ph.i ]
  %72 = and i64 %.04051.i, %.03353.i
  %73 = icmp eq i64 %72, 0
  br i1 %73, label %74, label %79

74:                                               ; preds = %.lr.ph.split.i
  %75 = or i64 %.04051.i, %.03353.i
  %76 = cmpxchg ptr %66, i64 %.03353.i, i64 %75 acq_rel acquire, align 8
  %77 = extractvalue { i64, i1 } %76, 1
  %78 = extractvalue { i64, i1 } %76, 0
  br i1 %77, label %_mi_bitmap_try_find_claim_field.exit, label %85, !llvm.loop !3

79:                                               ; preds = %.lr.ph.split.i
  %80 = tail call range(i64 0, 65) i64 @llvm.ctlz.i64(i64 %72, i1 true)
  %81 = add i64 %.03852.i, %80
  %82 = sub i64 64, %81
  %83 = add i64 %82, %.03852.i
  %84 = shl i64 %.04051.i, %82
  br label %85

85:                                               ; preds = %79, %74
  %.141.i = phi i64 [ %84, %79 ], [ %.04051.i, %74 ]
  %.139.i = phi i64 [ %83, %79 ], [ %.03852.i, %74 ]
  %.235.i = phi i64 [ %.03353.i, %79 ], [ %78, %74 ]
  %.not.not.i = icmp ugt i64 %.139.i, %8
  br i1 %.not.not.i, label %.loopexit20, label %.lr.ph.split.i

_mi_bitmap_try_find_claim_field.exit:             ; preds = %74, %.lr.ph127, %44, %21, %.lr.ph.split.i.us59.preheader
  %spec.store.select28 = phi i64 [ %spec.store.select.us54, %.lr.ph.split.i.us59.preheader ], [ %spec.store.select.us, %21 ], [ %spec.store.select.us40, %44 ], [ %spec.store.select.us54, %.lr.ph127 ], [ %spec.store.select, %74 ]
  %.us-phi.i = phi i64 [ %56, %.lr.ph.split.i.us59.preheader ], [ %.03852.us.i.us, %21 ], [ %.03852.i.us, %44 ], [ %56, %.lr.ph127 ], [ %.03852.i, %74 ]
  %86 = shl i64 %spec.store.select28, 6
  %87 = add i64 %.us-phi.i, %86
  store i64 %87, ptr %4, align 8, !tbaa !5
  br label %.critedge

.loopexit20:                                      ; preds = %85, %.lr.ph.split.split.split, %mi_bitmap_mask_.exit.i
  %88 = add nuw i64 %.01231, 1
  %89 = add i64 %spec.store.select, 1
  %exitcond.not = icmp eq i64 %88, %1
  br i1 %exitcond.not, label %.critedge, label %.lr.ph.split.split.split, !llvm.loop !9

.critedge:                                        ; preds = %.loopexit20, %.loopexit20.us71, %.loopexit20.us, %.loopexit.us, %5, %_mi_bitmap_try_find_claim_field.exit
  %.not1625 = phi i1 [ true, %_mi_bitmap_try_find_claim_field.exit ], [ false, %5 ], [ false, %.loopexit.us ], [ false, %.loopexit20.us ], [ false, %.loopexit20.us71 ], [ false, %.loopexit20 ]
  ret i1 %.not1625
}